Certificate:
    Data:
        Version: 3 (0x2)
        Serial Number: 2 (0x2)
    Signature Algorithm: sha256WithRSAEncryption
        Issuer: C=BR, ST=TO, L=Palmas, O=IFTO-PMW\x09, OU=Student, CN=IFTO-PMW\x09 CA/name=EasyRSA/emailAddress=diegobass123@icloud.com
        Validity
            Not Before: May 13 12:52:01 2019 GMT
            Not After : May 10 12:52:01 2029 GMT
        Subject: C=BR, ST=TO, L=Palmas, O=IFTO-PMW\x09, OU=Student, CN=cliente1/name=EasyRSA/emailAddress=diegobass123@icloud.com
        Subject Public Key Info:
            Public Key Algorithm: rsaEncryption
                Public-Key: (2048 bit)
                Modulus:
                    00:a9:5d:8f:cb:5c:8a:57:c4:5d:50:23:d6:26:c0:
                    8c:d2:38:41:a7:28:32:ca:80:fd:57:bb:5e:7d:63:
                    a0:7f:7f:78:2b:7e:e7:94:26:25:da:42:f7:00:d0:
                    75:4e:40:7d:06:c4:25:2d:b4:7d:05:d7:0c:f5:fd:
                    0e:e4:0d:c3:64:5a:d5:c3:b0:c0:25:8f:39:f1:d2:
                    95:69:5d:6a:75:7c:06:04:63:0a:60:6c:64:56:f5:
                    81:b8:be:39:04:26:21:db:a1:fb:62:2e:cd:91:95:
                    0d:97:5e:aa:36:eb:fd:fd:cd:37:ca:dd:59:34:b7:
                    ed:5b:21:d1:9d:d8:f3:39:07:c1:a4:91:e7:f4:a7:
                    b3:9f:73:ae:06:c4:2f:bf:7f:3c:d9:2c:ea:5b:06:
                    25:52:d6:1c:3b:f1:82:7a:4d:7b:fd:35:16:72:7d:
                    e6:ac:31:d4:75:81:d2:00:c9:71:61:47:8e:93:fd:
                    c7:32:0c:fc:7d:6e:4f:79:74:73:36:83:57:f4:00:
                    14:a4:f2:8a:fc:b7:b6:3b:9d:43:2d:f9:d6:92:fb:
                    c8:eb:0d:fb:03:bc:68:17:f3:48:16:eb:3d:ab:f9:
                    90:8f:ac:47:b3:4a:89:b5:c8:be:95:1d:9b:40:d5:
                    c6:bf:8c:0e:26:bb:ea:87:0f:f4:29:a2:ee:44:10:
                    c2:1b
                Exponent: 65537 (0x10001)
        X509v3 extensions:
            X509v3 Basic Constraints: 
                CA:FALSE
            Netscape Comment: 
                Easy-RSA Generated Certificate
            X509v3 Subject Key Identifier: 
                3B:9F:07:33:A0:9F:10:95:1B:17:45:86:15:7B:11:F9:62:7A:63:1E
            X509v3 Authority Key Identifier: 
                keyid:45:43:55:C5:75:11:74:8B:A0:4A:AE:C1:AD:30:0C:64:8C:3F:68:06
                DirName:/C=BR/ST=TO/L=Palmas/O=IFTO-PMW\x09/OU=Student/CN=IFTO-PMW\x09 CA/name=EasyRSA/emailAddress=diegobass123@icloud.com
                serial:A8:D7:0B:8D:38:D9:11:47

            X509v3 Extended Key Usage: 
                TLS Web Client Authentication
            X509v3 Key Usage: 
                Digital Signature
            X509v3 Subject Alternative Name: 
                DNS:cliente1
    Signature Algorithm: sha256WithRSAEncryption
         9a:2c:2c:95:d2:ad:82:17:99:f0:bd:be:b8:32:f0:c5:d2:18:
         a1:89:2b:2e:cf:53:57:63:20:9f:87:1c:55:95:0c:4b:6d:fa:
         c3:d2:5d:63:23:7d:71:14:45:00:e0:cc:63:2b:a0:06:82:d3:
         78:b0:8b:a5:0a:b6:4b:72:5d:c0:7e:ea:38:c7:ef:53:19:7d:
         e8:28:09:92:88:62:33:a8:73:70:ee:61:63:49:77:c0:e3:54:
         7c:7c:44:f8:22:ea:96:86:50:52:96:c0:eb:bc:c7:5a:0e:82:
         a2:fb:66:13:c6:8a:6e:fd:b3:de:13:16:51:bc:e2:7a:c8:45:
         66:06:f9:ed:98:82:10:29:5c:96:4b:c0:ba:ae:82:df:58:00:
         c2:53:3d:9e:c6:8b:4a:89:71:ac:7c:66:ac:ea:57:58:41:c6:
         02:90:a3:b0:40:b3:14:de:49:d2:fa:9f:14:0e:e4:8c:e2:dd:
         a1:7d:ca:5a:ca:8e:42:f8:5c:18:9c:88:98:9c:27:8c:f3:fa:
         e3:88:b7:43:b1:09:d4:b5:c3:44:bb:58:90:da:e1:1f:2d:b3:
         fa:ab:97:b5:6e:f3:c1:fa:c5:19:84:b5:d5:14:80:6f:48:8a:
         9a:d9:45:ea:70:05:90:1a:52:08:33:72:fc:2a:77:10:e2:bb:
         fc:e8:2f:52
-----BEGIN CERTIFICATE-----
MIIFLTCCBBWgAwIBAgIBAjANBgkqhkiG9w0BAQsFADCBojELMAkGA1UEBhMCQlIx
CzAJBgNVBAgTAlRPMQ8wDQYDVQQHEwZQYWxtYXMxEjAQBgNVBAoUCUlGVE8tUE1X
CTEQMA4GA1UECxMHU3R1ZGVudDEVMBMGA1UEAxQMSUZUTy1QTVcJIENBMRAwDgYD
VQQpEwdFYXN5UlNBMSYwJAYJKoZIhvcNAQkBFhdkaWVnb2Jhc3MxMjNAaWNsb3Vk
LmNvbTAeFw0xOTA1MTMxMjUyMDFaFw0yOTA1MTAxMjUyMDFaMIGeMQswCQYDVQQG
EwJCUjELMAkGA1UECBMCVE8xDzANBgNVBAcTBlBhbG1hczESMBAGA1UEChQJSUZU
Ty1QTVcJMRAwDgYDVQQLEwdTdHVkZW50MREwDwYDVQQDEwhjbGllbnRlMTEQMA4G
A1UEKRMHRWFzeVJTQTEmMCQGCSqGSIb3DQEJARYXZGllZ29iYXNzMTIzQGljbG91
ZC5jb20wggEiMA0GCSqGSIb3DQEBAQUAA4IBDwAwggEKAoIBAQCpXY/LXIpXxF1Q
I9YmwIzSOEGnKDLKgP1Xu159Y6B/f3grfueUJiXaQvcA0HVOQH0GxCUttH0F1wz1
/Q7kDcNkWtXDsMAljznx0pVpXWp1fAYEYwpgbGRW9YG4vjkEJiHboftiLs2RlQ2X
Xqo26/39zTfK3Vk0t+1bIdGd2PM5B8Gkkef0p7Ofc64GxC+/fzzZLOpbBiVS1hw7
8YJ6TXv9NRZyfeasMdR1gdIAyXFhR46T/ccyDPx9bk95dHM2g1f0ABSk8or8t7Y7
nUMt+daS+8jrDfsDvGgX80gW6z2r+ZCPrEezSom1yL6VHZtA1ca/jA4mu+qHD/Qp
ou5EEMIbAgMBAAGjggFuMIIBajAJBgNVHRMEAjAAMC0GCWCGSAGG+EIBDQQgFh5F
YXN5LVJTQSBHZW5lcmF0ZWQgQ2VydGlmaWNhdGUwHQYDVR0OBBYEFDufBzOgnxCV
GxdFhhV7EfliemMeMIHXBgNVHSMEgc8wgcyAFEVDVcV1EXSLoEquwa0wDGSMP2gG
oYGopIGlMIGiMQswCQYDVQQGEwJCUjELMAkGA1UECBMCVE8xDzANBgNVBAcTBlBh
bG1hczESMBAGA1UEChQJSUZUTy1QTVcJMRAwDgYDVQQLEwdTdHVkZW50MRUwEwYD
VQQDFAxJRlRPLVBNVwkgQ0ExEDAOBgNVBCkTB0Vhc3lSU0ExJjAkBgkqhkiG9w0B
CQEWF2RpZWdvYmFzczEyM0BpY2xvdWQuY29tggkAqNcLjTjZEUcwEwYDVR0lBAww
CgYIKwYBBQUHAwIwCwYDVR0PBAQDAgeAMBMGA1UdEQQMMAqCCGNsaWVudGUxMA0G
CSqGSIb3DQEBCwUAA4IBAQCaLCyV0q2CF5nwvb64MvDF0hihiSsuz1NXYyCfhxxV
lQxLbfrD0l1jI31xFEUA4MxjK6AGgtN4sIulCrZLcl3Afuo4x+9TGX3oKAmSiGIz
qHNw7mFjSXfA41R8fET4IuqWhlBSlsDrvMdaDoKi+2YTxopu/bPeExZRvOJ6yEVm
BvntmIIQKVyWS8C6roLfWADCUz2exotKiXGsfGas6ldYQcYCkKOwQLMU3knS+p8U
DuSM4t2hfcpayo5C+FwYnIiYnCeM8/rjiLdDsQnUtcNEu1iQ2uEfLbP6q5e1bvPB
+sUZhLXVFIBvSIqa2UXqcAWQGlIIM3L8KncQ4rv86C9S
-----END CERTIFICATE-----
