Certificate:
    Data:
        Version: 3 (0x2)
        Serial Number: 3 (0x3)
    Signature Algorithm: sha256WithRSAEncryption
        Issuer: C=BR, ST=TO, L=Palmas, O=IFTO-PMW\x09, OU=Student, CN=IFTO-PMW\x09 CA/name=EasyRSA/emailAddress=diegobass123@icloud.com
        Validity
            Not Before: May 13 12:52:14 2019 GMT
            Not After : May 10 12:52:14 2029 GMT
        Subject: C=BR, ST=TO, L=Palmas, O=IFTO-PMW\x09, OU=Student, CN=cliente2/name=EasyRSA/emailAddress=diegobass123@icloud.com
        Subject Public Key Info:
            Public Key Algorithm: rsaEncryption
                Public-Key: (2048 bit)
                Modulus:
                    00:cb:34:f8:6a:90:76:76:d9:5f:3c:02:2d:1a:ea:
                    dc:c2:a9:5c:19:bd:3f:ed:e1:e9:48:c3:ff:30:c9:
                    d1:fb:c8:23:02:ad:3a:f3:58:05:a8:b1:ef:6a:ed:
                    1a:07:8d:23:e2:f8:89:a6:de:35:b9:f3:fc:90:bf:
                    44:7f:2f:43:c5:17:99:ed:9e:19:b6:6f:c3:0c:62:
                    65:9f:e4:7d:19:13:27:f7:b1:9e:36:63:21:50:62:
                    6e:d3:83:bd:bc:e6:3f:a6:5b:69:df:13:2f:cd:34:
                    b7:97:56:ec:25:5e:e4:5f:0d:7f:3e:43:05:19:db:
                    47:0b:66:f2:b4:5e:9b:52:e6:02:50:34:2c:a9:c3:
                    5e:f7:dc:55:fe:dc:b1:63:d0:20:93:01:52:5b:96:
                    bf:ba:75:96:a0:34:4e:94:32:82:68:a1:1e:d6:1a:
                    ec:cf:ad:41:c2:90:02:ba:9e:00:43:d5:c7:44:6e:
                    6b:ed:ea:dc:b3:ba:28:61:8b:dc:04:b1:fe:84:fc:
                    25:9f:b1:1e:30:cd:9a:54:8c:2f:9a:f3:93:59:d1:
                    a7:e3:97:a2:ac:8b:66:92:69:0e:f7:b5:c8:e3:07:
                    a9:4f:63:fe:b5:3e:7d:b0:1a:6a:5a:15:f0:76:8d:
                    ec:40:0d:97:2f:72:d9:dc:bc:25:d8:7a:00:2d:6b:
                    56:1b
                Exponent: 65537 (0x10001)
        X509v3 extensions:
            X509v3 Basic Constraints: 
                CA:FALSE
            Netscape Comment: 
                Easy-RSA Generated Certificate
            X509v3 Subject Key Identifier: 
                40:58:A0:3E:1F:52:CA:55:3C:1B:12:D7:DA:87:5D:71:81:AA:2A:59
            X509v3 Authority Key Identifier: 
                keyid:45:43:55:C5:75:11:74:8B:A0:4A:AE:C1:AD:30:0C:64:8C:3F:68:06
                DirName:/C=BR/ST=TO/L=Palmas/O=IFTO-PMW\x09/OU=Student/CN=IFTO-PMW\x09 CA/name=EasyRSA/emailAddress=diegobass123@icloud.com
                serial:A8:D7:0B:8D:38:D9:11:47

            X509v3 Extended Key Usage: 
                TLS Web Client Authentication
            X509v3 Key Usage: 
                Digital Signature
            X509v3 Subject Alternative Name: 
                DNS:cliente2
    Signature Algorithm: sha256WithRSAEncryption
         1f:86:68:b1:8e:ec:cf:97:2d:0d:b0:f3:e1:62:cf:ba:ad:a5:
         cd:4a:95:90:f3:b2:6b:00:4b:7b:e9:02:df:74:9e:3a:95:70:
         a7:7f:a9:00:28:5c:9f:88:51:9a:12:46:49:0c:84:bb:fe:a2:
         af:d2:37:89:8a:38:26:8c:6f:71:62:12:3c:31:59:39:15:b0:
         6e:db:84:d0:27:32:2e:b5:a6:1a:5d:74:7b:4d:37:b9:79:d4:
         d4:6a:bf:43:88:e4:38:27:e4:96:16:12:44:2d:b3:75:2b:b3:
         82:ec:bb:29:ae:ab:f8:11:a8:bf:e1:29:09:57:ec:52:7f:ec:
         81:eb:7f:a8:1b:9c:5b:d2:e1:b1:11:0e:00:d1:1e:a9:aa:a6:
         27:1b:45:89:c7:74:89:5a:09:58:b4:76:75:1f:7a:8e:55:31:
         de:1a:da:18:a6:9d:93:4f:b2:de:37:32:db:af:fa:38:47:a7:
         d0:81:fd:1f:14:71:90:2f:eb:80:9d:bf:0c:94:0e:11:3d:c9:
         f9:f2:53:e8:39:23:e3:ac:eb:49:0c:1c:16:7b:c3:45:dd:dc:
         22:fb:7e:58:e9:2f:91:03:ca:5b:38:70:5f:38:4e:08:78:c8:
         2e:92:72:36:01:5b:12:f2:b6:e3:56:c9:61:1f:98:cb:e1:41:
         0c:66:45:35
-----BEGIN CERTIFICATE-----
MIIFLTCCBBWgAwIBAgIBAzANBgkqhkiG9w0BAQsFADCBojELMAkGA1UEBhMCQlIx
CzAJBgNVBAgTAlRPMQ8wDQYDVQQHEwZQYWxtYXMxEjAQBgNVBAoUCUlGVE8tUE1X
CTEQMA4GA1UECxMHU3R1ZGVudDEVMBMGA1UEAxQMSUZUTy1QTVcJIENBMRAwDgYD
VQQpEwdFYXN5UlNBMSYwJAYJKoZIhvcNAQkBFhdkaWVnb2Jhc3MxMjNAaWNsb3Vk
LmNvbTAeFw0xOTA1MTMxMjUyMTRaFw0yOTA1MTAxMjUyMTRaMIGeMQswCQYDVQQG
EwJCUjELMAkGA1UECBMCVE8xDzANBgNVBAcTBlBhbG1hczESMBAGA1UEChQJSUZU
Ty1QTVcJMRAwDgYDVQQLEwdTdHVkZW50MREwDwYDVQQDEwhjbGllbnRlMjEQMA4G
A1UEKRMHRWFzeVJTQTEmMCQGCSqGSIb3DQEJARYXZGllZ29iYXNzMTIzQGljbG91
ZC5jb20wggEiMA0GCSqGSIb3DQEBAQUAA4IBDwAwggEKAoIBAQDLNPhqkHZ22V88
Ai0a6tzCqVwZvT/t4elIw/8wydH7yCMCrTrzWAWose9q7RoHjSPi+Imm3jW58/yQ
v0R/L0PFF5ntnhm2b8MMYmWf5H0ZEyf3sZ42YyFQYm7Tg7285j+mW2nfEy/NNLeX
VuwlXuRfDX8+QwUZ20cLZvK0XptS5gJQNCypw1733FX+3LFj0CCTAVJblr+6dZag
NE6UMoJooR7WGuzPrUHCkAK6ngBD1cdEbmvt6tyzuihhi9wEsf6E/CWfsR4wzZpU
jC+a85NZ0afjl6Ksi2aSaQ73tcjjB6lPY/61Pn2wGmpaFfB2jexADZcvctncvCXY
egAta1YbAgMBAAGjggFuMIIBajAJBgNVHRMEAjAAMC0GCWCGSAGG+EIBDQQgFh5F
YXN5LVJTQSBHZW5lcmF0ZWQgQ2VydGlmaWNhdGUwHQYDVR0OBBYEFEBYoD4fUspV
PBsS19qHXXGBqipZMIHXBgNVHSMEgc8wgcyAFEVDVcV1EXSLoEquwa0wDGSMP2gG
oYGopIGlMIGiMQswCQYDVQQGEwJCUjELMAkGA1UECBMCVE8xDzANBgNVBAcTBlBh
bG1hczESMBAGA1UEChQJSUZUTy1QTVcJMRAwDgYDVQQLEwdTdHVkZW50MRUwEwYD
VQQDFAxJRlRPLVBNVwkgQ0ExEDAOBgNVBCkTB0Vhc3lSU0ExJjAkBgkqhkiG9w0B
CQEWF2RpZWdvYmFzczEyM0BpY2xvdWQuY29tggkAqNcLjTjZEUcwEwYDVR0lBAww
CgYIKwYBBQUHAwIwCwYDVR0PBAQDAgeAMBMGA1UdEQQMMAqCCGNsaWVudGUyMA0G
CSqGSIb3DQEBCwUAA4IBAQAfhmixjuzPly0NsPPhYs+6raXNSpWQ87JrAEt76QLf
dJ46lXCnf6kAKFyfiFGaEkZJDIS7/qKv0jeJijgmjG9xYhI8MVk5FbBu24TQJzIu
taYaXXR7TTe5edTUar9DiOQ4J+SWFhJELbN1K7OC7Lsprqv4Eai/4SkJV+xSf+yB
63+oG5xb0uGxEQ4A0R6pqqYnG0WJx3SJWglYtHZ1H3qOVTHeGtoYpp2TT7LeNzLb
r/o4R6fQgf0fFHGQL+uAnb8MlA4RPcn58lPoOSPjrOtJDBwWe8NF3dwi+35Y6S+R
A8pbOHBfOE4IeMguknI2AVsS8rbjVslhH5jL4UEMZkU1
-----END CERTIFICATE-----
