Certificate:
    Data:
        Version: 3 (0x2)
        Serial Number: 3 (0x3)
    Signature Algorithm: sha256WithRSAEncryption
        Issuer: C=BR, ST=TO, L=Palmas, O=IFTO, OU=Multi_Client_server, CN=IFTO CA/name=EasyRSA/emailAddress=jeremiasneres23@gmail.com
        Validity
            Not Before: May 13 12:13:36 2019 GMT
            Not After : May 10 12:13:36 2029 GMT
        Subject: C=BR, ST=TO, L=Palmas, O=IFTO, OU=Multi_Client_server, CN=cliente2/name=EasyRSA/emailAddress=jeremiasneres23@gmail.com
        Subject Public Key Info:
            Public Key Algorithm: rsaEncryption
                Public-Key: (2048 bit)
                Modulus:
                    00:a1:9c:0e:b2:16:06:a7:7d:7b:b2:47:70:71:5e:
                    f0:6d:47:fa:ed:d8:f8:1e:d1:1c:55:1a:f1:7d:ed:
                    2f:0f:e6:0c:08:a2:66:5c:71:1a:e8:bc:06:21:be:
                    39:f9:42:b3:4d:a5:39:12:06:77:eb:90:c0:81:36:
                    87:94:98:bc:52:64:40:67:43:82:a0:84:7d:db:e0:
                    41:d1:60:c6:bb:04:90:65:8e:83:15:db:5a:9a:89:
                    61:82:73:58:6b:c4:1c:c7:aa:c8:64:79:eb:fe:8a:
                    10:c8:dc:bc:96:11:ee:af:9c:d8:5c:0e:f4:d6:47:
                    2e:af:00:f5:f6:53:d0:eb:c7:18:22:ad:6c:26:18:
                    a1:cc:3d:b4:a6:e5:80:6b:cd:cb:28:ea:84:d7:8a:
                    3a:83:8c:76:70:e2:75:7d:c1:88:d1:4b:c0:e6:04:
                    96:97:b9:78:7b:6d:38:fa:af:95:f6:84:7c:9f:7a:
                    c4:12:a9:f5:e0:a7:82:52:de:d0:80:6c:c5:00:7d:
                    fa:fa:71:4b:ea:2e:b6:45:8c:cc:c3:69:d3:85:97:
                    85:6d:13:d7:72:2f:ee:a8:67:a3:86:2e:3c:b2:ff:
                    57:64:ac:98:9c:fc:0d:a7:a3:ce:d6:9e:7c:8d:f0:
                    97:60:95:b6:7e:31:c9:23:c6:57:d2:1f:a9:8d:fc:
                    41:c7
                Exponent: 65537 (0x10001)
        X509v3 extensions:
            X509v3 Basic Constraints: 
                CA:FALSE
            Netscape Comment: 
                Easy-RSA Generated Certificate
            X509v3 Subject Key Identifier: 
                64:58:E8:BF:67:8A:6F:06:3E:B1:E5:52:D2:07:E0:F9:AF:CC:B7:26
            X509v3 Authority Key Identifier: 
                keyid:54:E6:B4:88:C6:7C:EE:DF:43:4E:1A:B1:5D:43:BF:54:B7:12:7D:36
                DirName:/C=BR/ST=TO/L=Palmas/O=IFTO/OU=Multi_Client_server/CN=IFTO CA/name=EasyRSA/emailAddress=jeremiasneres23@gmail.com
                serial:FB:E5:8E:42:CB:B0:32:67

            X509v3 Extended Key Usage: 
                TLS Web Client Authentication
            X509v3 Key Usage: 
                Digital Signature
            X509v3 Subject Alternative Name: 
                DNS:cliente2
    Signature Algorithm: sha256WithRSAEncryption
         3e:fe:3a:44:30:64:42:07:d0:e5:a6:06:c3:e7:e8:69:82:a2:
         42:b1:53:99:c3:7a:58:60:5c:30:10:d0:e5:a9:cd:7d:1f:ae:
         82:37:74:e5:76:6a:50:08:76:4e:bf:e8:28:93:72:47:4a:a1:
         df:4d:9f:96:af:50:b9:77:7b:7a:fb:c4:c3:a1:e2:92:a4:c3:
         7e:40:5d:5f:99:92:56:83:10:3d:35:b6:79:fa:b9:77:26:70:
         77:62:bc:4d:80:ab:78:8f:6c:17:10:bf:c6:10:6c:68:9b:6b:
         85:a4:82:da:d0:69:04:6e:1b:ee:0d:cd:5c:7f:25:8f:07:35:
         f5:d3:ec:53:58:b2:7e:9c:a1:d0:db:db:d7:25:a0:6c:e6:d1:
         53:8d:de:41:75:42:a4:c5:0c:66:43:02:fd:23:cb:37:db:90:
         d1:b1:b5:17:35:3c:bc:15:94:3f:07:ae:51:cf:1e:67:10:87:
         b9:54:3e:6c:2d:69:bb:c7:4d:4c:e9:19:95:29:b5:9e:dc:cb:
         fe:63:af:3d:5e:c0:62:a7:09:36:4b:36:25:74:d9:12:27:e8:
         6f:a1:2a:69:51:83:7c:3a:3a:67:71:76:f6:cc:09:49:fe:95:
         07:60:99:ca:f2:1f:ee:d7:a4:91:59:e0:99:74:4d:9f:dd:74:
         60:70:73:3e
-----BEGIN CERTIFICATE-----
MIIFPjCCBCagAwIBAgIBAzANBgkqhkiG9w0BAQsFADCBpjELMAkGA1UEBhMCQlIx
CzAJBgNVBAgTAlRPMQ8wDQYDVQQHEwZQYWxtYXMxDTALBgNVBAoTBElGVE8xHDAa
BgNVBAsUE011bHRpX0NsaWVudF9zZXJ2ZXIxEDAOBgNVBAMTB0lGVE8gQ0ExEDAO
BgNVBCkTB0Vhc3lSU0ExKDAmBgkqhkiG9w0BCQEWGWplcmVtaWFzbmVyZXMyM0Bn
bWFpbC5jb20wHhcNMTkwNTEzMTIxMzM2WhcNMjkwNTEwMTIxMzM2WjCBpzELMAkG
A1UEBhMCQlIxCzAJBgNVBAgTAlRPMQ8wDQYDVQQHEwZQYWxtYXMxDTALBgNVBAoT
BElGVE8xHDAaBgNVBAsUE011bHRpX0NsaWVudF9zZXJ2ZXIxETAPBgNVBAMTCGNs
aWVudGUyMRAwDgYDVQQpEwdFYXN5UlNBMSgwJgYJKoZIhvcNAQkBFhlqZXJlbWlh
c25lcmVzMjNAZ21haWwuY29tMIIBIjANBgkqhkiG9w0BAQEFAAOCAQ8AMIIBCgKC
AQEAoZwOshYGp317skdwcV7wbUf67dj4HtEcVRrxfe0vD+YMCKJmXHEa6LwGIb45
+UKzTaU5EgZ365DAgTaHlJi8UmRAZ0OCoIR92+BB0WDGuwSQZY6DFdtamolhgnNY
a8Qcx6rIZHnr/ooQyNy8lhHur5zYXA701kcurwD19lPQ68cYIq1sJhihzD20puWA
a83LKOqE14o6g4x2cOJ1fcGI0UvA5gSWl7l4e204+q+V9oR8n3rEEqn14KeCUt7Q
gGzFAH36+nFL6i62RYzMw2nThZeFbRPXci/uqGejhi48sv9XZKyYnPwNp6PO1p58
jfCXYJW2fjHJI8ZX0h+pjfxBxwIDAQABo4IBcjCCAW4wCQYDVR0TBAIwADAtBglg
hkgBhvhCAQ0EIBYeRWFzeS1SU0EgR2VuZXJhdGVkIENlcnRpZmljYXRlMB0GA1Ud
DgQWBBRkWOi/Z4pvBj6x5VLSB+D5r8y3JjCB2wYDVR0jBIHTMIHQgBRU5rSIxnzu
30NOGrFdQ79UtxJ9NqGBrKSBqTCBpjELMAkGA1UEBhMCQlIxCzAJBgNVBAgTAlRP
MQ8wDQYDVQQHEwZQYWxtYXMxDTALBgNVBAoTBElGVE8xHDAaBgNVBAsUE011bHRp
X0NsaWVudF9zZXJ2ZXIxEDAOBgNVBAMTB0lGVE8gQ0ExEDAOBgNVBCkTB0Vhc3lS
U0ExKDAmBgkqhkiG9w0BCQEWGWplcmVtaWFzbmVyZXMyM0BnbWFpbC5jb22CCQD7
5Y5Cy7AyZzATBgNVHSUEDDAKBggrBgEFBQcDAjALBgNVHQ8EBAMCB4AwEwYDVR0R
BAwwCoIIY2xpZW50ZTIwDQYJKoZIhvcNAQELBQADggEBAD7+OkQwZEIH0OWmBsPn
6GmCokKxU5nDelhgXDAQ0OWpzX0froI3dOV2alAIdk6/6CiTckdKod9Nn5avULl3
e3r7xMOh4pKkw35AXV+ZklaDED01tnn6uXcmcHdivE2Aq3iPbBcQv8YQbGiba4Wk
gtrQaQRuG+4NzVx/JY8HNfXT7FNYsn6codDb29cloGzm0VON3kF1QqTFDGZDAv0j
yzfbkNGxtRc1PLwVlD8HrlHPHmcQh7lUPmwtabvHTUzpGZUptZ7cy/5jrz1ewGKn
CTZLNiV02RIn6G+hKmlRg3w6OmdxdvbMCUn+lQdgmcryH+7XpJFZ4Jl0TZ/ddGBw
cz4=
-----END CERTIFICATE-----
