Certificate:
    Data:
        Version: 3 (0x2)
        Serial Number: 1 (0x1)
    Signature Algorithm: sha256WithRSAEncryption
        Issuer: C=BR, ST=TO, L=Palmas, O=IFTO, OU=Multi_Client_server, CN=IFTO CA/name=EasyRSA/emailAddress=jeremiasneres23@gmail.com
        Validity
            Not Before: May 27 11:48:03 2019 GMT
            Not After : May 24 11:48:03 2029 GMT
        Subject: C=BR, ST=TO, L=Palmas, O=IFTO, OU=Multi_Client_server, CN=servidor/name=EasyRSA/emailAddress=jeremiasneres23@gmail.com
        Subject Public Key Info:
            Public Key Algorithm: rsaEncryption
                Public-Key: (2048 bit)
                Modulus:
                    00:d6:27:07:e4:13:4b:b0:a9:0e:0d:60:de:cb:36:
                    b2:fd:e3:68:72:00:60:49:70:23:69:4c:60:3c:f5:
                    eb:71:cd:43:1b:6d:aa:2a:a8:6c:3e:af:e7:10:fc:
                    c9:e8:cf:db:22:05:f2:50:53:a7:54:34:ff:50:9f:
                    8a:ef:c6:7e:fd:1b:bc:83:d3:85:d2:66:9a:e4:62:
                    63:ae:96:8f:34:2a:3f:8d:40:90:63:00:b6:ab:8b:
                    28:aa:38:f5:c8:85:58:04:8f:b2:d1:12:99:8d:ec:
                    b7:6a:7f:e7:3c:fb:52:85:6f:89:46:fb:bd:b1:93:
                    b7:b2:64:fe:14:68:fe:5a:b8:4f:9f:b5:ed:93:e3:
                    b7:5f:13:c5:46:bd:e0:1f:35:8d:43:06:6b:f9:1d:
                    ae:7c:3f:46:97:3f:96:05:87:06:d3:85:4c:ea:59:
                    8a:d2:46:04:ce:02:39:7e:55:fe:87:98:5f:28:4e:
                    04:9e:3c:b2:3b:cf:41:5b:fc:48:02:d6:3b:51:99:
                    c5:92:09:11:73:64:b3:7d:aa:90:3d:5c:ea:2a:75:
                    f0:4e:e8:f5:10:25:dc:d7:fd:5c:47:af:d9:0a:e0:
                    a0:f4:8b:af:95:89:11:93:10:25:9e:aa:e5:c9:70:
                    b3:03:7b:e8:6c:0b:05:87:db:51:73:08:30:1f:ef:
                    de:33
                Exponent: 65537 (0x10001)
        X509v3 extensions:
            X509v3 Basic Constraints: 
                CA:FALSE
            Netscape Cert Type: 
                SSL Server
            Netscape Comment: 
                Easy-RSA Generated Server Certificate
            X509v3 Subject Key Identifier: 
                BF:4B:E7:18:73:89:76:0D:C7:68:55:94:75:3A:8A:18:65:92:E5:2A
            X509v3 Authority Key Identifier: 
                keyid:B2:98:A2:62:C9:9B:E2:F2:C8:3F:33:3C:51:D3:61:96:35:15:A9:89
                DirName:/C=BR/ST=TO/L=Palmas/O=IFTO/OU=Multi_Client_server/CN=IFTO CA/name=EasyRSA/emailAddress=jeremiasneres23@gmail.com
                serial:AD:AE:D4:68:39:21:8C:7E

            X509v3 Extended Key Usage: 
                TLS Web Server Authentication
            X509v3 Key Usage: 
                Digital Signature, Key Encipherment
            X509v3 Subject Alternative Name: 
                DNS:servidor
    Signature Algorithm: sha256WithRSAEncryption
         0e:34:de:fb:09:fa:82:68:fe:4e:63:75:d4:34:c6:0d:37:95:
         08:64:47:99:4a:ed:0c:50:63:b1:bd:68:07:ef:3d:73:91:fa:
         92:b5:02:d5:e2:ec:1f:b2:21:c2:30:8a:de:5c:3d:45:c0:eb:
         c1:46:1c:ba:8e:d5:7a:b0:b3:bb:46:cd:d0:64:8a:74:61:8b:
         ca:cb:ac:a0:4b:1e:fc:c5:7f:67:d1:67:cf:30:8f:8e:8f:2f:
         e2:9a:a1:5d:2e:be:c1:c0:90:f2:d7:00:c3:2a:4d:5f:27:b0:
         ac:48:19:72:bf:24:1c:d6:78:93:30:94:5e:95:9a:4f:9c:1e:
         79:fb:e8:16:77:be:e8:be:00:ef:51:76:21:ed:8a:e5:1f:78:
         c4:a2:e0:64:29:e9:27:c0:36:c7:42:75:35:68:ec:6f:b4:7a:
         91:10:b5:14:9c:04:a9:74:43:65:85:70:37:94:b3:5e:64:87:
         87:ab:53:bd:e9:65:36:a3:82:4f:0a:1b:a5:f2:c6:e4:ba:1c:
         b5:2a:3d:be:ce:a2:1f:29:8d:9c:78:57:f6:99:c8:54:b3:36:
         93:f6:0a:e3:1b:6e:11:8a:7b:85:6f:67:7b:4f:4b:ed:47:41:
         90:12:3e:82:ec:72:d2:9a:1a:27:d4:ff:fe:ad:2b:54:91:d7:
         f0:a8:62:b4
-----BEGIN CERTIFICATE-----
MIIFWDCCBECgAwIBAgIBATANBgkqhkiG9w0BAQsFADCBpjELMAkGA1UEBhMCQlIx
CzAJBgNVBAgTAlRPMQ8wDQYDVQQHEwZQYWxtYXMxDTALBgNVBAoTBElGVE8xHDAa
BgNVBAsUE011bHRpX0NsaWVudF9zZXJ2ZXIxEDAOBgNVBAMTB0lGVE8gQ0ExEDAO
BgNVBCkTB0Vhc3lSU0ExKDAmBgkqhkiG9w0BCQEWGWplcmVtaWFzbmVyZXMyM0Bn
bWFpbC5jb20wHhcNMTkwNTI3MTE0ODAzWhcNMjkwNTI0MTE0ODAzWjCBpzELMAkG
A1UEBhMCQlIxCzAJBgNVBAgTAlRPMQ8wDQYDVQQHEwZQYWxtYXMxDTALBgNVBAoT
BElGVE8xHDAaBgNVBAsUE011bHRpX0NsaWVudF9zZXJ2ZXIxETAPBgNVBAMTCHNl
cnZpZG9yMRAwDgYDVQQpEwdFYXN5UlNBMSgwJgYJKoZIhvcNAQkBFhlqZXJlbWlh
c25lcmVzMjNAZ21haWwuY29tMIIBIjANBgkqhkiG9w0BAQEFAAOCAQ8AMIIBCgKC
AQEA1icH5BNLsKkODWDeyzay/eNocgBgSXAjaUxgPPXrcc1DG22qKqhsPq/nEPzJ
6M/bIgXyUFOnVDT/UJ+K78Z+/Ru8g9OF0maa5GJjrpaPNCo/jUCQYwC2q4soqjj1
yIVYBI+y0RKZjey3an/nPPtShW+JRvu9sZO3smT+FGj+WrhPn7Xtk+O3XxPFRr3g
HzWNQwZr+R2ufD9Glz+WBYcG04VM6lmK0kYEzgI5flX+h5hfKE4EnjyyO89BW/xI
AtY7UZnFkgkRc2SzfaqQPVzqKnXwTuj1ECXc1/1cR6/ZCuCg9IuvlYkRkxAlnqrl
yXCzA3vobAsFh9tRcwgwH+/eMwIDAQABo4IBjDCCAYgwCQYDVR0TBAIwADARBglg
hkgBhvhCAQEEBAMCBkAwNAYJYIZIAYb4QgENBCcWJUVhc3ktUlNBIEdlbmVyYXRl
ZCBTZXJ2ZXIgQ2VydGlmaWNhdGUwHQYDVR0OBBYEFL9L5xhziXYNx2hVlHU6ihhl
kuUqMIHbBgNVHSMEgdMwgdCAFLKYomLJm+LyyD8zPFHTYZY1FamJoYGspIGpMIGm
MQswCQYDVQQGEwJCUjELMAkGA1UECBMCVE8xDzANBgNVBAcTBlBhbG1hczENMAsG
A1UEChMESUZUTzEcMBoGA1UECxQTTXVsdGlfQ2xpZW50X3NlcnZlcjEQMA4GA1UE
AxMHSUZUTyBDQTEQMA4GA1UEKRMHRWFzeVJTQTEoMCYGCSqGSIb3DQEJARYZamVy
ZW1pYXNuZXJlczIzQGdtYWlsLmNvbYIJAK2u1Gg5IYx+MBMGA1UdJQQMMAoGCCsG
AQUFBwMBMAsGA1UdDwQEAwIFoDATBgNVHREEDDAKgghzZXJ2aWRvcjANBgkqhkiG
9w0BAQsFAAOCAQEADjTe+wn6gmj+TmN11DTGDTeVCGRHmUrtDFBjsb1oB+89c5H6
krUC1eLsH7IhwjCK3lw9RcDrwUYcuo7VerCzu0bN0GSKdGGLysusoEse/MV/Z9Fn
zzCPjo8v4pqhXS6+wcCQ8tcAwypNXyewrEgZcr8kHNZ4kzCUXpWaT5weefvoFne+
6L4A71F2Ie2K5R94xKLgZCnpJ8A2x0J1NWjsb7R6kRC1FJwEqXRDZYVwN5SzXmSH
h6tTvellNqOCTwobpfLG5LoctSo9vs6iHymNnHhX9pnIVLM2k/YK4xtuEYp7hW9n
e09L7UdBkBI+guxy0poaJ9T//q0rVJHX8KhitA==
-----END CERTIFICATE-----
