Certificate:
    Data:
        Version: 3 (0x2)
        Serial Number: 4 (0x4)
    Signature Algorithm: sha256WithRSAEncryption
        Issuer: C=BR, ST=TO, L=Palmas, O=IFTO, OU=Multi_Client_server, CN=IFTO CA/name=EasyRSA/emailAddress=jeremiasneres23@gmail.com
        Validity
            Not Before: May 13 13:16:48 2019 GMT
            Not After : May 10 13:16:48 2029 GMT
        Subject: C=BR, ST=TO, L=Palmas, O=IFTO, OU=Multi_Client_server, CN=cliente3/name=EasyRSA/emailAddress=jeremiasneres23@gmail.com
        Subject Public Key Info:
            Public Key Algorithm: rsaEncryption
                Public-Key: (2048 bit)
                Modulus:
                    00:ca:50:7f:39:4e:e2:2f:87:31:66:16:4a:8d:2c:
                    6e:98:02:6f:2b:ee:b2:61:5f:1b:bf:4b:8f:46:79:
                    fe:b5:98:cd:b5:d9:45:03:9b:fe:a8:3f:8c:e1:b5:
                    eb:97:2e:07:fc:8e:14:8c:bc:b3:0d:9a:57:05:93:
                    79:4b:d0:13:b7:de:d4:9d:b9:49:28:a2:10:5a:48:
                    84:6f:ff:ad:a8:8d:6e:14:77:e7:32:6d:d0:1b:fc:
                    9f:f4:7e:b4:a9:f2:e4:16:18:49:c9:08:e5:bf:02:
                    63:3f:42:0a:4e:22:1b:b8:83:68:63:3b:92:54:37:
                    96:f1:47:14:03:40:af:b7:ac:8c:73:39:2b:14:7b:
                    0e:14:12:01:94:b8:09:d6:ab:4e:f9:22:ce:2a:2b:
                    2f:3c:2f:32:78:be:01:9c:d1:ea:a3:bb:2f:21:8d:
                    5e:3e:55:06:fd:8a:20:55:a9:f4:04:e0:bb:1d:2e:
                    32:4a:a1:8a:4e:61:85:30:8a:98:af:6f:61:9a:9d:
                    ca:4a:f3:09:19:92:0d:f5:c7:82:6e:37:80:88:9c:
                    19:a6:83:c7:8d:f7:1c:ed:0c:5f:8e:a3:bc:28:df:
                    3e:0f:d8:7a:25:83:b4:ea:da:60:55:09:af:32:23:
                    07:09:78:33:a5:8f:27:5c:03:a7:6b:71:62:09:2b:
                    c1:21
                Exponent: 65537 (0x10001)
        X509v3 extensions:
            X509v3 Basic Constraints: 
                CA:FALSE
            Netscape Comment: 
                Easy-RSA Generated Certificate
            X509v3 Subject Key Identifier: 
                86:68:B2:93:9B:69:6E:E7:C0:AE:60:3D:15:F6:BB:A0:8F:FC:FE:1B
            X509v3 Authority Key Identifier: 
                keyid:54:E6:B4:88:C6:7C:EE:DF:43:4E:1A:B1:5D:43:BF:54:B7:12:7D:36
                DirName:/C=BR/ST=TO/L=Palmas/O=IFTO/OU=Multi_Client_server/CN=IFTO CA/name=EasyRSA/emailAddress=jeremiasneres23@gmail.com
                serial:FB:E5:8E:42:CB:B0:32:67

            X509v3 Extended Key Usage: 
                TLS Web Client Authentication
            X509v3 Key Usage: 
                Digital Signature
            X509v3 Subject Alternative Name: 
                DNS:cliente3
    Signature Algorithm: sha256WithRSAEncryption
         6f:80:bf:56:a5:55:1f:90:76:04:51:3d:ce:fa:47:bc:dc:42:
         5b:2c:52:7c:1b:ca:8c:7b:e3:32:8b:ac:9e:6f:2e:a5:57:dc:
         44:d6:07:6c:ea:a6:2e:e7:47:b0:61:bf:d0:bc:ef:85:68:e0:
         b7:f3:55:b5:6e:9d:a3:0f:ec:b6:ff:c7:4b:6f:17:8f:d2:8d:
         d6:8d:db:93:56:0e:f7:bd:cf:da:04:ac:f1:0b:2c:9a:45:53:
         61:c9:bf:7c:a2:68:25:ae:2f:be:ae:64:82:65:92:9f:fc:63:
         ba:f4:79:58:16:88:1e:97:90:b8:e2:e0:d3:78:55:15:45:aa:
         88:c0:f0:b5:b2:7c:b7:5c:7a:60:6c:d3:d8:d1:35:98:8d:09:
         75:f9:37:2b:e3:73:96:3a:59:73:67:d3:72:9d:5d:7d:f4:28:
         1b:71:35:32:8c:74:45:e4:a8:6a:9d:cc:76:cc:1b:a1:5b:bb:
         60:47:b1:57:d9:e6:a6:94:08:2c:bd:c1:1d:f4:51:d2:f5:ef:
         9b:56:ae:a5:35:e3:e0:e1:d6:01:cc:3b:6d:bb:0b:aa:91:bd:
         d2:65:55:e7:16:6b:c6:9d:b8:9d:51:23:69:9b:ba:cc:1e:ae:
         5d:b6:f7:5c:9c:b9:ca:36:b9:48:70:2a:0a:56:38:26:0d:72:
         dd:fb:8a:6a
-----BEGIN CERTIFICATE-----
MIIFPjCCBCagAwIBAgIBBDANBgkqhkiG9w0BAQsFADCBpjELMAkGA1UEBhMCQlIx
CzAJBgNVBAgTAlRPMQ8wDQYDVQQHEwZQYWxtYXMxDTALBgNVBAoTBElGVE8xHDAa
BgNVBAsUE011bHRpX0NsaWVudF9zZXJ2ZXIxEDAOBgNVBAMTB0lGVE8gQ0ExEDAO
BgNVBCkTB0Vhc3lSU0ExKDAmBgkqhkiG9w0BCQEWGWplcmVtaWFzbmVyZXMyM0Bn
bWFpbC5jb20wHhcNMTkwNTEzMTMxNjQ4WhcNMjkwNTEwMTMxNjQ4WjCBpzELMAkG
A1UEBhMCQlIxCzAJBgNVBAgTAlRPMQ8wDQYDVQQHEwZQYWxtYXMxDTALBgNVBAoT
BElGVE8xHDAaBgNVBAsUE011bHRpX0NsaWVudF9zZXJ2ZXIxETAPBgNVBAMTCGNs
aWVudGUzMRAwDgYDVQQpEwdFYXN5UlNBMSgwJgYJKoZIhvcNAQkBFhlqZXJlbWlh
c25lcmVzMjNAZ21haWwuY29tMIIBIjANBgkqhkiG9w0BAQEFAAOCAQ8AMIIBCgKC
AQEAylB/OU7iL4cxZhZKjSxumAJvK+6yYV8bv0uPRnn+tZjNtdlFA5v+qD+M4bXr
ly4H/I4UjLyzDZpXBZN5S9ATt97UnblJKKIQWkiEb/+tqI1uFHfnMm3QG/yf9H60
qfLkFhhJyQjlvwJjP0IKTiIbuINoYzuSVDeW8UcUA0Cvt6yMczkrFHsOFBIBlLgJ
1qtO+SLOKisvPC8yeL4BnNHqo7svIY1ePlUG/YogVan0BOC7HS4ySqGKTmGFMIqY
r29hmp3KSvMJGZIN9ceCbjeAiJwZpoPHjfcc7QxfjqO8KN8+D9h6JYO06tpgVQmv
MiMHCXgzpY8nXAOna3FiCSvBIQIDAQABo4IBcjCCAW4wCQYDVR0TBAIwADAtBglg
hkgBhvhCAQ0EIBYeRWFzeS1SU0EgR2VuZXJhdGVkIENlcnRpZmljYXRlMB0GA1Ud
DgQWBBSGaLKTm2lu58CuYD0V9rugj/z+GzCB2wYDVR0jBIHTMIHQgBRU5rSIxnzu
30NOGrFdQ79UtxJ9NqGBrKSBqTCBpjELMAkGA1UEBhMCQlIxCzAJBgNVBAgTAlRP
MQ8wDQYDVQQHEwZQYWxtYXMxDTALBgNVBAoTBElGVE8xHDAaBgNVBAsUE011bHRp
X0NsaWVudF9zZXJ2ZXIxEDAOBgNVBAMTB0lGVE8gQ0ExEDAOBgNVBCkTB0Vhc3lS
U0ExKDAmBgkqhkiG9w0BCQEWGWplcmVtaWFzbmVyZXMyM0BnbWFpbC5jb22CCQD7
5Y5Cy7AyZzATBgNVHSUEDDAKBggrBgEFBQcDAjALBgNVHQ8EBAMCB4AwEwYDVR0R
BAwwCoIIY2xpZW50ZTMwDQYJKoZIhvcNAQELBQADggEBAG+Av1alVR+QdgRRPc76
R7zcQlssUnwbyox74zKLrJ5vLqVX3ETWB2zqpi7nR7Bhv9C874Vo4LfzVbVunaMP
7Lb/x0tvF4/SjdaN25NWDve9z9oErPELLJpFU2HJv3yiaCWuL76uZIJlkp/8Y7r0
eVgWiB6XkLji4NN4VRVFqojA8LWyfLdcemBs09jRNZiNCXX5Nyvjc5Y6WXNn03Kd
XX30KBtxNTKMdEXkqGqdzHbMG6Fbu2BHsVfZ5qaUCCy9wR30UdL175tWrqU14+Dh
1gHMO227C6qRvdJlVecWa8aduJ1RI2mbuswerl2291ycuco2uUhwKgpWOCYNct37
imo=
-----END CERTIFICATE-----
