Certificate:
    Data:
        Version: 3 (0x2)
        Serial Number: 2 (0x2)
    Signature Algorithm: sha256WithRSAEncryption
        Issuer: C=BR, ST=TO, L=Palmas, O=IFTO, OU=Multi_Client_server, CN=IFTO CA/name=EasyRSA/emailAddress=jeremiasneres23@gmail.com
        Validity
            Not Before: May 13 12:13:20 2019 GMT
            Not After : May 10 12:13:20 2029 GMT
        Subject: C=BR, ST=TO, L=Palmas, O=IFTO, OU=Multi_Client_server, CN=cliente1/name=EasyRSA/emailAddress=jeremiasneres23@gmail.com
        Subject Public Key Info:
            Public Key Algorithm: rsaEncryption
                Public-Key: (2048 bit)
                Modulus:
                    00:b7:7f:af:35:80:ef:0b:a9:27:c5:1d:20:10:c9:
                    7e:7e:c2:9b:40:e8:d1:5d:6f:c9:f4:5e:c4:03:7b:
                    72:14:50:34:88:ad:2c:14:fd:90:67:81:ea:69:77:
                    0c:7c:d8:4b:39:d8:4b:74:04:68:22:98:df:8d:d2:
                    c5:a8:c7:77:9b:93:44:96:ae:3e:86:62:04:30:b6:
                    9a:96:cd:4c:31:1e:6e:87:22:94:11:88:78:75:af:
                    da:cc:6c:6c:42:cc:9e:c7:7e:d1:35:1a:8e:6c:02:
                    4f:90:e7:ac:8a:14:ce:73:13:70:6d:68:1c:a7:4a:
                    22:93:e3:b1:63:59:03:f8:60:45:f5:31:98:b1:e1:
                    5f:b4:27:77:55:39:09:8d:b6:e4:8b:21:05:b6:7f:
                    13:6f:e5:91:aa:e1:36:a0:a4:0c:b6:69:d8:43:78:
                    ad:b5:92:aa:e8:e5:62:89:97:a9:d0:d2:6d:bf:19:
                    f9:f7:19:36:46:e3:23:fd:e4:70:32:ef:4f:fc:c4:
                    ee:be:ac:09:be:5a:4d:fe:c0:10:88:42:60:05:0e:
                    9e:ef:75:63:8b:c0:82:96:89:f5:d8:88:7e:12:5f:
                    e1:d5:68:c7:74:63:1d:49:00:b6:bb:e2:35:75:8e:
                    a7:90:09:9d:56:61:33:85:13:3c:55:b1:5e:ef:99:
                    64:59
                Exponent: 65537 (0x10001)
        X509v3 extensions:
            X509v3 Basic Constraints: 
                CA:FALSE
            Netscape Comment: 
                Easy-RSA Generated Certificate
            X509v3 Subject Key Identifier: 
                1F:B8:4C:E3:FF:F7:AD:B8:D1:CD:99:BA:39:0B:82:94:97:8E:23:D3
            X509v3 Authority Key Identifier: 
                keyid:54:E6:B4:88:C6:7C:EE:DF:43:4E:1A:B1:5D:43:BF:54:B7:12:7D:36
                DirName:/C=BR/ST=TO/L=Palmas/O=IFTO/OU=Multi_Client_server/CN=IFTO CA/name=EasyRSA/emailAddress=jeremiasneres23@gmail.com
                serial:FB:E5:8E:42:CB:B0:32:67

            X509v3 Extended Key Usage: 
                TLS Web Client Authentication
            X509v3 Key Usage: 
                Digital Signature
            X509v3 Subject Alternative Name: 
                DNS:cliente1
    Signature Algorithm: sha256WithRSAEncryption
         85:db:91:ac:2c:d9:2f:28:91:6d:a9:c0:0b:08:ee:dd:6b:a1:
         ac:0b:d2:93:72:d3:e7:98:0c:c1:2c:29:8d:d7:0f:6d:45:69:
         a4:58:ee:0c:d9:39:19:a0:1d:c9:eb:48:27:a6:79:88:d3:7f:
         a2:6e:2d:f1:d2:c5:f2:00:63:1d:d8:16:22:db:c5:34:5a:c2:
         34:22:26:82:0f:88:22:e8:64:72:08:31:9c:e8:e4:02:cb:2b:
         85:04:f0:b0:1a:68:cf:48:19:84:cc:ac:df:99:d6:ce:60:49:
         19:24:be:53:9b:56:6f:a2:3d:2b:cb:78:1b:66:44:78:17:0e:
         5f:01:21:7f:58:af:41:20:a0:e5:c9:68:6d:54:87:c3:a2:a6:
         32:f4:7f:b1:90:6e:9f:d5:e1:d9:48:6a:d1:bb:12:d7:d6:02:
         e1:5a:a5:d2:e4:f2:06:a3:b4:7e:7c:d9:6a:2a:a8:3c:f4:25:
         ab:00:40:3a:2b:31:8f:c7:83:92:73:19:a4:00:ea:6c:81:96:
         2b:a9:ed:77:99:4c:d3:94:1c:da:9e:a8:d9:4d:ca:58:34:bf:
         89:30:45:61:3d:ce:e1:16:7d:64:f7:f2:7c:db:59:cb:0a:7a:
         2b:bd:0d:c8:e8:2c:44:57:b5:57:9b:4a:07:b7:ff:de:ac:d3:
         6c:33:02:3a
-----BEGIN CERTIFICATE-----
MIIFPjCCBCagAwIBAgIBAjANBgkqhkiG9w0BAQsFADCBpjELMAkGA1UEBhMCQlIx
CzAJBgNVBAgTAlRPMQ8wDQYDVQQHEwZQYWxtYXMxDTALBgNVBAoTBElGVE8xHDAa
BgNVBAsUE011bHRpX0NsaWVudF9zZXJ2ZXIxEDAOBgNVBAMTB0lGVE8gQ0ExEDAO
BgNVBCkTB0Vhc3lSU0ExKDAmBgkqhkiG9w0BCQEWGWplcmVtaWFzbmVyZXMyM0Bn
bWFpbC5jb20wHhcNMTkwNTEzMTIxMzIwWhcNMjkwNTEwMTIxMzIwWjCBpzELMAkG
A1UEBhMCQlIxCzAJBgNVBAgTAlRPMQ8wDQYDVQQHEwZQYWxtYXMxDTALBgNVBAoT
BElGVE8xHDAaBgNVBAsUE011bHRpX0NsaWVudF9zZXJ2ZXIxETAPBgNVBAMTCGNs
aWVudGUxMRAwDgYDVQQpEwdFYXN5UlNBMSgwJgYJKoZIhvcNAQkBFhlqZXJlbWlh
c25lcmVzMjNAZ21haWwuY29tMIIBIjANBgkqhkiG9w0BAQEFAAOCAQ8AMIIBCgKC
AQEAt3+vNYDvC6knxR0gEMl+fsKbQOjRXW/J9F7EA3tyFFA0iK0sFP2QZ4HqaXcM
fNhLOdhLdARoIpjfjdLFqMd3m5NElq4+hmIEMLaals1MMR5uhyKUEYh4da/azGxs
Qsyex37RNRqObAJPkOesihTOcxNwbWgcp0oik+OxY1kD+GBF9TGYseFftCd3VTkJ
jbbkiyEFtn8Tb+WRquE2oKQMtmnYQ3ittZKq6OViiZep0NJtvxn59xk2RuMj/eRw
Mu9P/MTuvqwJvlpN/sAQiEJgBQ6e73Vji8CClon12Ih+El/h1WjHdGMdSQC2u+I1
dY6nkAmdVmEzhRM8VbFe75lkWQIDAQABo4IBcjCCAW4wCQYDVR0TBAIwADAtBglg
hkgBhvhCAQ0EIBYeRWFzeS1SU0EgR2VuZXJhdGVkIENlcnRpZmljYXRlMB0GA1Ud
DgQWBBQfuEzj//etuNHNmbo5C4KUl44j0zCB2wYDVR0jBIHTMIHQgBRU5rSIxnzu
30NOGrFdQ79UtxJ9NqGBrKSBqTCBpjELMAkGA1UEBhMCQlIxCzAJBgNVBAgTAlRP
MQ8wDQYDVQQHEwZQYWxtYXMxDTALBgNVBAoTBElGVE8xHDAaBgNVBAsUE011bHRp
X0NsaWVudF9zZXJ2ZXIxEDAOBgNVBAMTB0lGVE8gQ0ExEDAOBgNVBCkTB0Vhc3lS
U0ExKDAmBgkqhkiG9w0BCQEWGWplcmVtaWFzbmVyZXMyM0BnbWFpbC5jb22CCQD7
5Y5Cy7AyZzATBgNVHSUEDDAKBggrBgEFBQcDAjALBgNVHQ8EBAMCB4AwEwYDVR0R
BAwwCoIIY2xpZW50ZTEwDQYJKoZIhvcNAQELBQADggEBAIXbkaws2S8okW2pwAsI
7t1roawL0pNy0+eYDMEsKY3XD21FaaRY7gzZORmgHcnrSCemeYjTf6JuLfHSxfIA
Yx3YFiLbxTRawjQiJoIPiCLoZHIIMZzo5ALLK4UE8LAaaM9IGYTMrN+Z1s5gSRkk
vlObVm+iPSvLeBtmRHgXDl8BIX9Yr0EgoOXJaG1Uh8OipjL0f7GQbp/V4dlIatG7
EtfWAuFapdLk8gajtH582WoqqDz0JasAQDorMY/Hg5JzGaQA6myBliup7XeZTNOU
HNqeqNlNylg0v4kwRWE9zuEWfWT38nzbWcsKeiu9DcjoLERXtVebSge3/96s02wz
Ajo=
-----END CERTIFICATE-----
