Certificate:
    Data:
        Version: 3 (0x2)
        Serial Number: 2 (0x2)
    Signature Algorithm: sha256WithRSAEncryption
        Issuer: C=BR, ST=TO, L=Palmas, O=IFTO, OU=Multi_Client_server, CN=IFTO CA/name=EasyRSA/emailAddress=jeremiasneres23@gmail.com
        Validity
            Not Before: May 27 11:48:21 2019 GMT
            Not After : May 24 11:48:21 2029 GMT
        Subject: C=BR, ST=TO, L=Palmas, O=IFTO, OU=Multi_Client_server, CN=cliente1/name=EasyRSA/emailAddress=jeremiasneres23@gmail.com
        Subject Public Key Info:
            Public Key Algorithm: rsaEncryption
                Public-Key: (2048 bit)
                Modulus:
                    00:9c:32:4d:d9:c1:1f:42:e1:f1:f6:76:14:63:f0:
                    c2:35:e3:4e:71:a1:68:6c:fb:e9:23:bc:83:ce:ed:
                    2f:3f:5d:a8:c6:79:d0:7a:bf:09:c9:90:0d:83:4e:
                    5e:dc:b9:eb:68:f0:3f:2f:ed:03:01:c3:60:65:1b:
                    90:17:a0:5d:87:07:93:b3:f8:70:14:95:81:b9:6d:
                    b1:12:ec:60:1d:e9:67:f9:37:ff:1a:f6:62:a3:a6:
                    e9:a7:38:d7:45:de:cb:94:ef:83:ae:68:bc:c8:6e:
                    06:06:11:fc:c4:34:f5:b5:2e:b8:66:ee:cc:83:90:
                    74:f2:00:7c:e5:49:4c:26:63:92:6b:f0:e7:89:a6:
                    2f:6a:94:49:3b:cd:9e:a5:fd:08:26:96:09:01:55:
                    57:35:5f:f0:d8:e0:23:5d:67:43:1d:ac:93:ca:23:
                    15:bb:1a:78:a8:92:4b:6c:4e:98:92:5b:ca:12:eb:
                    5c:bd:a8:6d:54:28:5b:7c:cc:fd:e3:a6:fb:ae:f8:
                    81:60:78:cb:11:0d:f9:d8:43:9c:f8:80:c2:5e:36:
                    fd:b8:3d:4f:f4:bc:de:24:46:e5:01:7e:cf:7b:d5:
                    43:b7:ba:57:32:18:aa:58:ce:91:29:2d:04:d4:ee:
                    d5:6e:ab:c5:fa:50:7f:54:1b:95:56:0d:98:7a:d7:
                    69:5d
                Exponent: 65537 (0x10001)
        X509v3 extensions:
            X509v3 Basic Constraints: 
                CA:FALSE
            Netscape Comment: 
                Easy-RSA Generated Certificate
            X509v3 Subject Key Identifier: 
                88:F0:59:72:4B:37:76:9E:BC:42:56:BD:0C:13:0E:99:96:57:38:31
            X509v3 Authority Key Identifier: 
                keyid:B2:98:A2:62:C9:9B:E2:F2:C8:3F:33:3C:51:D3:61:96:35:15:A9:89
                DirName:/C=BR/ST=TO/L=Palmas/O=IFTO/OU=Multi_Client_server/CN=IFTO CA/name=EasyRSA/emailAddress=jeremiasneres23@gmail.com
                serial:AD:AE:D4:68:39:21:8C:7E

            X509v3 Extended Key Usage: 
                TLS Web Client Authentication
            X509v3 Key Usage: 
                Digital Signature
            X509v3 Subject Alternative Name: 
                DNS:cliente1
    Signature Algorithm: sha256WithRSAEncryption
         32:a2:68:94:87:65:e1:d7:58:57:5d:d8:b9:d0:18:34:e9:d2:
         68:38:af:0e:0c:99:8d:6a:5d:12:40:05:b5:97:c5:6f:9a:d2:
         16:79:c3:53:52:aa:48:eb:07:55:44:ab:37:5f:e4:e8:ee:53:
         9a:29:c0:22:48:73:6f:3e:05:e9:a7:2c:35:81:61:ae:01:ed:
         5f:52:45:01:b6:54:db:d0:28:7d:bd:cc:99:25:91:8a:84:9b:
         e6:bd:a9:9e:4d:af:55:4a:bb:4c:fb:29:98:d6:a0:2a:de:ca:
         e7:fd:81:66:a3:88:51:e2:ce:99:ab:1b:23:2f:9a:d6:53:ad:
         30:3d:27:aa:04:7b:27:f1:17:38:5f:f8:ba:89:1a:67:3b:34:
         70:a0:d3:5c:fd:0e:d2:f1:b5:ef:99:53:fc:c1:02:20:b6:be:
         20:b8:d3:68:9d:df:95:88:f2:13:09:fb:33:02:42:95:83:b5:
         b2:1e:72:0f:39:bd:3a:b2:5c:d1:e8:49:4d:17:57:65:f1:9a:
         4a:49:43:75:67:18:22:de:b7:ec:63:bb:c7:f9:e0:90:a2:1b:
         36:48:20:94:e5:8c:07:db:1d:db:63:80:90:e7:52:0c:66:3e:
         0b:a6:0a:f8:bb:07:99:dd:89:29:49:1c:4f:e1:ea:40:e2:d2:
         a2:88:98:50
-----BEGIN CERTIFICATE-----
MIIFPjCCBCagAwIBAgIBAjANBgkqhkiG9w0BAQsFADCBpjELMAkGA1UEBhMCQlIx
CzAJBgNVBAgTAlRPMQ8wDQYDVQQHEwZQYWxtYXMxDTALBgNVBAoTBElGVE8xHDAa
BgNVBAsUE011bHRpX0NsaWVudF9zZXJ2ZXIxEDAOBgNVBAMTB0lGVE8gQ0ExEDAO
BgNVBCkTB0Vhc3lSU0ExKDAmBgkqhkiG9w0BCQEWGWplcmVtaWFzbmVyZXMyM0Bn
bWFpbC5jb20wHhcNMTkwNTI3MTE0ODIxWhcNMjkwNTI0MTE0ODIxWjCBpzELMAkG
A1UEBhMCQlIxCzAJBgNVBAgTAlRPMQ8wDQYDVQQHEwZQYWxtYXMxDTALBgNVBAoT
BElGVE8xHDAaBgNVBAsUE011bHRpX0NsaWVudF9zZXJ2ZXIxETAPBgNVBAMTCGNs
aWVudGUxMRAwDgYDVQQpEwdFYXN5UlNBMSgwJgYJKoZIhvcNAQkBFhlqZXJlbWlh
c25lcmVzMjNAZ21haWwuY29tMIIBIjANBgkqhkiG9w0BAQEFAAOCAQ8AMIIBCgKC
AQEAnDJN2cEfQuHx9nYUY/DCNeNOcaFobPvpI7yDzu0vP12oxnnQer8JyZANg05e
3LnraPA/L+0DAcNgZRuQF6BdhweTs/hwFJWBuW2xEuxgHeln+Tf/GvZio6bppzjX
Rd7LlO+Drmi8yG4GBhH8xDT1tS64Zu7Mg5B08gB85UlMJmOSa/DniaYvapRJO82e
pf0IJpYJAVVXNV/w2OAjXWdDHayTyiMVuxp4qJJLbE6YklvKEutcvahtVChbfMz9
46b7rviBYHjLEQ352EOc+IDCXjb9uD1P9LzeJEblAX7Pe9VDt7pXMhiqWM6RKS0E
1O7VbqvF+lB/VBuVVg2YetdpXQIDAQABo4IBcjCCAW4wCQYDVR0TBAIwADAtBglg
hkgBhvhCAQ0EIBYeRWFzeS1SU0EgR2VuZXJhdGVkIENlcnRpZmljYXRlMB0GA1Ud
DgQWBBSI8FlySzd2nrxCVr0MEw6Zllc4MTCB2wYDVR0jBIHTMIHQgBSymKJiyZvi
8sg/MzxR02GWNRWpiaGBrKSBqTCBpjELMAkGA1UEBhMCQlIxCzAJBgNVBAgTAlRP
MQ8wDQYDVQQHEwZQYWxtYXMxDTALBgNVBAoTBElGVE8xHDAaBgNVBAsUE011bHRp
X0NsaWVudF9zZXJ2ZXIxEDAOBgNVBAMTB0lGVE8gQ0ExEDAOBgNVBCkTB0Vhc3lS
U0ExKDAmBgkqhkiG9w0BCQEWGWplcmVtaWFzbmVyZXMyM0BnbWFpbC5jb22CCQCt
rtRoOSGMfjATBgNVHSUEDDAKBggrBgEFBQcDAjALBgNVHQ8EBAMCB4AwEwYDVR0R
BAwwCoIIY2xpZW50ZTEwDQYJKoZIhvcNAQELBQADggEBADKiaJSHZeHXWFdd2LnQ
GDTp0mg4rw4MmY1qXRJABbWXxW+a0hZ5w1NSqkjrB1VEqzdf5OjuU5opwCJIc28+
BemnLDWBYa4B7V9SRQG2VNvQKH29zJklkYqEm+a9qZ5Nr1VKu0z7KZjWoCreyuf9
gWajiFHizpmrGyMvmtZTrTA9J6oEeyfxFzhf+LqJGmc7NHCg01z9DtLxte+ZU/zB
AiC2viC402id35WI8hMJ+zMCQpWDtbIecg85vTqyXNHoSU0XV2XxmkpJQ3VnGCLe
t+xju8f54JCiGzZIIJTljAfbHdtjgJDnUgxmPgumCvi7B5ndiSlJHE/h6kDi0qKI
mFA=
-----END CERTIFICATE-----
