Certificate:
    Data:
        Version: 3 (0x2)
        Serial Number: 3 (0x3)
    Signature Algorithm: sha256WithRSAEncryption
        Issuer: C=BR, ST=TO, L=Palmas, O=IFTO, OU=Multi_Client_server, CN=IFTO CA/name=EasyRSA/emailAddress=jeremiasneres23@gmail.com
        Validity
            Not Before: May 27 11:48:49 2019 GMT
            Not After : May 24 11:48:49 2029 GMT
        Subject: C=BR, ST=TO, L=Palmas, O=IFTO, OU=Multi_Client_server, CN=cliente-wlliany/name=EasyRSA/emailAddress=jeremiasneres23@gmail.com
        Subject Public Key Info:
            Public Key Algorithm: rsaEncryption
                Public-Key: (2048 bit)
                Modulus:
                    00:ee:92:d2:6c:2b:07:06:f1:ab:b2:76:63:03:7a:
                    4b:1e:2b:39:c8:4a:a6:3a:06:2c:6c:08:41:64:78:
                    b8:61:00:0e:78:e7:a8:06:51:d7:3f:04:35:30:92:
                    35:cc:92:5e:9f:37:5b:92:a3:34:a6:8d:37:86:b1:
                    2d:37:7d:b1:6f:1b:38:ba:86:9a:af:8a:9c:60:f0:
                    10:01:26:0a:3e:62:ad:1a:c0:25:fe:11:61:51:e6:
                    30:59:3c:e0:16:05:bb:2c:d6:da:b0:6b:3f:a1:fe:
                    7f:1d:35:ab:f7:fb:0f:7d:72:da:c0:0e:af:85:68:
                    68:ea:76:7c:46:9d:ea:1c:ee:f2:97:ef:de:ec:19:
                    b3:cc:9b:7a:35:ad:95:88:61:03:30:ed:ca:80:d4:
                    5c:87:67:42:f9:1f:c5:52:5a:af:a7:d6:5b:77:b5:
                    e7:16:20:d9:88:64:89:cb:54:6c:ee:15:6d:2d:b4:
                    a7:a7:0b:d1:b8:71:cd:80:8d:0c:d0:b8:db:c3:da:
                    1d:be:d6:66:27:4a:6e:63:4f:dc:33:a8:05:5d:4f:
                    36:6f:2c:df:00:42:8d:07:3c:ca:6d:28:b8:92:33:
                    d9:7a:99:31:ff:1c:ee:32:ff:14:42:22:60:97:64:
                    59:41:e8:91:67:ed:41:60:d9:8d:5e:07:af:d7:bb:
                    d2:6b
                Exponent: 65537 (0x10001)
        X509v3 extensions:
            X509v3 Basic Constraints: 
                CA:FALSE
            Netscape Comment: 
                Easy-RSA Generated Certificate
            X509v3 Subject Key Identifier: 
                E1:E3:8C:E8:D9:B5:8D:F3:6E:6D:B9:95:9C:F0:7E:E7:89:1C:EB:33
            X509v3 Authority Key Identifier: 
                keyid:B2:98:A2:62:C9:9B:E2:F2:C8:3F:33:3C:51:D3:61:96:35:15:A9:89
                DirName:/C=BR/ST=TO/L=Palmas/O=IFTO/OU=Multi_Client_server/CN=IFTO CA/name=EasyRSA/emailAddress=jeremiasneres23@gmail.com
                serial:AD:AE:D4:68:39:21:8C:7E

            X509v3 Extended Key Usage: 
                TLS Web Client Authentication
            X509v3 Key Usage: 
                Digital Signature
            X509v3 Subject Alternative Name: 
                DNS:cliente-wlliany
    Signature Algorithm: sha256WithRSAEncryption
         7a:3d:ab:ba:18:65:b3:10:f8:19:3c:6c:51:f2:1e:60:17:dc:
         33:a1:e2:21:5b:49:25:25:e0:c4:b9:f8:50:0e:57:d3:aa:1b:
         1c:bf:b1:3b:b0:74:dd:27:8f:ff:d0:ed:fb:1a:0d:da:fd:78:
         f6:5e:0f:fc:05:95:62:c1:8d:2b:d1:30:44:01:0c:4c:a0:86:
         0b:e4:26:70:d4:d1:b0:d2:cb:e1:29:7c:61:b1:d2:09:a2:17:
         63:9a:6f:3c:8c:f1:bd:71:5f:7d:cb:8e:33:02:c0:19:d3:9f:
         cc:7e:4e:72:d2:9c:88:f7:ad:1e:92:35:6b:69:2b:74:54:c2:
         c9:6b:95:ee:8f:15:31:bb:73:bd:dd:a5:b1:d3:00:50:b8:ed:
         0d:cc:fb:d0:6e:b9:76:04:ce:78:89:66:c9:da:e6:ba:ea:14:
         4d:1e:9e:d3:8b:d0:ee:19:8b:3e:2a:b8:2c:3a:2d:70:f5:cc:
         d9:51:e9:4b:9c:ac:9f:d8:36:6b:89:6a:72:57:61:7d:8b:f7:
         1f:54:5e:7d:ae:e9:9c:38:fc:d2:37:3e:54:3f:bf:1e:12:dc:
         3d:78:6b:c8:61:eb:2a:75:ab:66:48:f1:59:e5:df:a2:de:31:
         bd:cf:bb:7f:08:10:ec:8b:24:59:4f:e4:42:ab:a9:c0:7c:60:
         c1:aa:d1:16
-----BEGIN CERTIFICATE-----
MIIFTDCCBDSgAwIBAgIBAzANBgkqhkiG9w0BAQsFADCBpjELMAkGA1UEBhMCQlIx
CzAJBgNVBAgTAlRPMQ8wDQYDVQQHEwZQYWxtYXMxDTALBgNVBAoTBElGVE8xHDAa
BgNVBAsUE011bHRpX0NsaWVudF9zZXJ2ZXIxEDAOBgNVBAMTB0lGVE8gQ0ExEDAO
BgNVBCkTB0Vhc3lSU0ExKDAmBgkqhkiG9w0BCQEWGWplcmVtaWFzbmVyZXMyM0Bn
bWFpbC5jb20wHhcNMTkwNTI3MTE0ODQ5WhcNMjkwNTI0MTE0ODQ5WjCBrjELMAkG
A1UEBhMCQlIxCzAJBgNVBAgTAlRPMQ8wDQYDVQQHEwZQYWxtYXMxDTALBgNVBAoT
BElGVE8xHDAaBgNVBAsUE011bHRpX0NsaWVudF9zZXJ2ZXIxGDAWBgNVBAMTD2Ns
aWVudGUtd2xsaWFueTEQMA4GA1UEKRMHRWFzeVJTQTEoMCYGCSqGSIb3DQEJARYZ
amVyZW1pYXNuZXJlczIzQGdtYWlsLmNvbTCCASIwDQYJKoZIhvcNAQEBBQADggEP
ADCCAQoCggEBAO6S0mwrBwbxq7J2YwN6Sx4rOchKpjoGLGwIQWR4uGEADnjnqAZR
1z8ENTCSNcySXp83W5KjNKaNN4axLTd9sW8bOLqGmq+KnGDwEAEmCj5irRrAJf4R
YVHmMFk84BYFuyzW2rBrP6H+fx01q/f7D31y2sAOr4VoaOp2fEad6hzu8pfv3uwZ
s8ybejWtlYhhAzDtyoDUXIdnQvkfxVJar6fWW3e15xYg2YhkictUbO4VbS20p6cL
0bhxzYCNDNC428PaHb7WZidKbmNP3DOoBV1PNm8s3wBCjQc8ym0ouJIz2XqZMf8c
7jL/FEIiYJdkWUHokWftQWDZjV4Hr9e70msCAwEAAaOCAXkwggF1MAkGA1UdEwQC
MAAwLQYJYIZIAYb4QgENBCAWHkVhc3ktUlNBIEdlbmVyYXRlZCBDZXJ0aWZpY2F0
ZTAdBgNVHQ4EFgQU4eOM6Nm1jfNubbmVnPB+54kc6zMwgdsGA1UdIwSB0zCB0IAU
spiiYsmb4vLIPzM8UdNhljUVqYmhgaykgakwgaYxCzAJBgNVBAYTAkJSMQswCQYD
VQQIEwJUTzEPMA0GA1UEBxMGUGFsbWFzMQ0wCwYDVQQKEwRJRlRPMRwwGgYDVQQL
FBNNdWx0aV9DbGllbnRfc2VydmVyMRAwDgYDVQQDEwdJRlRPIENBMRAwDgYDVQQp
EwdFYXN5UlNBMSgwJgYJKoZIhvcNAQkBFhlqZXJlbWlhc25lcmVzMjNAZ21haWwu
Y29tggkAra7UaDkhjH4wEwYDVR0lBAwwCgYIKwYBBQUHAwIwCwYDVR0PBAQDAgeA
MBoGA1UdEQQTMBGCD2NsaWVudGUtd2xsaWFueTANBgkqhkiG9w0BAQsFAAOCAQEA
ej2ruhhlsxD4GTxsUfIeYBfcM6HiIVtJJSXgxLn4UA5X06obHL+xO7B03SeP/9Dt
+xoN2v149l4P/AWVYsGNK9EwRAEMTKCGC+QmcNTRsNLL4Sl8YbHSCaIXY5pvPIzx
vXFffcuOMwLAGdOfzH5OctKciPetHpI1a2krdFTCyWuV7o8VMbtzvd2lsdMAULjt
Dcz70G65dgTOeIlmydrmuuoUTR6e04vQ7hmLPiq4LDotcPXM2VHpS5ysn9g2a4lq
cldhfYv3H1Refa7pnDj80jc+VD+/HhLcPXhryGHrKnWrZkjxWeXfot4xvc+7fwgQ
7IskWU/kQqupwHxgwarRFg==
-----END CERTIFICATE-----
