Certificate:
    Data:
        Version: 3 (0x2)
        Serial Number: 4 (0x4)
    Signature Algorithm: sha256WithRSAEncryption
        Issuer: C=BR, ST=TO, L=Palmas, O=IFTO, OU=Multi_Client_server, CN=IFTO CA/name=EasyRSA/emailAddress=jeremiasneres23@gmail.com
        Validity
            Not Before: May 27 11:49:07 2019 GMT
            Not After : May 24 11:49:07 2029 GMT
        Subject: C=BR, ST=TO, L=Palmas, O=IFTO, OU=Multi_Client_server, CN=cliente-bass/name=EasyRSA/emailAddress=jeremiasneres23@gmail.com
        Subject Public Key Info:
            Public Key Algorithm: rsaEncryption
                Public-Key: (2048 bit)
                Modulus:
                    00:d1:ef:c7:1c:df:9c:3b:47:d5:8b:3d:42:c5:ff:
                    25:78:6e:d0:8c:18:d3:be:d2:14:58:2f:a1:fc:85:
                    c6:17:11:41:79:cc:81:0a:11:1d:ef:e0:08:30:de:
                    e6:c4:91:3c:da:32:78:58:e4:34:1d:a6:96:73:49:
                    da:e7:32:df:e8:ce:4d:ef:ac:b0:d6:b2:4b:6d:3d:
                    c0:0d:e1:99:aa:0c:40:a2:1d:f3:97:0a:4b:06:80:
                    85:67:13:b9:88:64:e8:cf:49:48:52:8b:e9:a0:3e:
                    98:bb:93:c3:82:4c:d7:7e:12:31:b1:ed:e3:05:1e:
                    64:7c:1f:78:69:91:81:28:90:76:9d:bb:23:e9:40:
                    29:34:40:de:e8:53:9d:0b:64:f6:52:a5:ad:d2:f7:
                    04:50:b2:32:08:9a:ac:2f:f4:a6:76:2c:07:36:b9:
                    92:9e:79:5f:ec:8e:50:c1:3a:25:01:05:bc:17:f5:
                    da:3d:99:8a:53:ba:ba:79:21:19:86:0a:44:94:07:
                    01:b6:37:66:b7:66:d1:ee:d8:4c:5d:e8:56:5a:85:
                    3b:37:a1:5e:3d:c4:5b:9c:c8:3e:93:1b:bc:c6:ee:
                    2f:82:3a:6e:d6:c5:0c:e9:d5:7b:e8:dc:4d:4f:06:
                    28:f0:22:e1:f1:73:c9:42:8b:b8:a9:15:51:b5:39:
                    cd:35
                Exponent: 65537 (0x10001)
        X509v3 extensions:
            X509v3 Basic Constraints: 
                CA:FALSE
            Netscape Comment: 
                Easy-RSA Generated Certificate
            X509v3 Subject Key Identifier: 
                7C:34:7C:B7:C8:AE:94:FF:06:C9:35:BF:0D:31:95:64:14:94:D0:47
            X509v3 Authority Key Identifier: 
                keyid:B2:98:A2:62:C9:9B:E2:F2:C8:3F:33:3C:51:D3:61:96:35:15:A9:89
                DirName:/C=BR/ST=TO/L=Palmas/O=IFTO/OU=Multi_Client_server/CN=IFTO CA/name=EasyRSA/emailAddress=jeremiasneres23@gmail.com
                serial:AD:AE:D4:68:39:21:8C:7E

            X509v3 Extended Key Usage: 
                TLS Web Client Authentication
            X509v3 Key Usage: 
                Digital Signature
            X509v3 Subject Alternative Name: 
                DNS:cliente-bass
    Signature Algorithm: sha256WithRSAEncryption
         98:88:0b:72:65:fa:b2:ea:f3:a1:0e:59:b5:d1:85:de:4c:aa:
         b3:8c:e2:17:f0:16:bb:a4:d6:3b:15:51:f8:70:1f:46:1d:a2:
         c4:19:2c:43:16:d9:ba:7f:02:c0:d2:6b:79:c8:2e:02:6c:ae:
         26:1f:50:ba:00:e9:34:aa:64:62:9e:89:3b:4a:18:59:13:d1:
         b1:fb:29:43:cb:71:61:a2:a8:8c:a7:e9:26:cb:0b:db:f0:89:
         3e:ba:c9:18:d4:1c:88:e2:25:81:26:5e:dc:de:fc:66:80:7f:
         29:8f:5d:ba:11:15:c2:de:1f:8c:60:95:4b:28:b0:59:1b:d4:
         5a:b3:83:31:3b:c6:8c:c1:ad:d9:01:73:e3:79:8e:d4:b0:fe:
         e1:bb:99:ac:33:9b:1f:a2:d1:8d:cd:89:1c:00:ee:8f:68:56:
         5d:b5:83:0b:a1:55:34:fa:09:7b:7c:f9:46:bb:07:28:ab:3e:
         f3:92:a0:97:45:9a:50:63:e8:02:c1:8e:c2:ca:7e:7c:17:15:
         31:c6:f3:76:c1:99:a0:18:37:c9:26:32:68:e8:47:ba:6d:6d:
         81:3c:24:7d:c1:91:af:4d:db:7b:a7:f0:a3:49:e8:98:1e:08:
         87:7a:89:65:e8:0a:42:db:99:01:10:ce:b7:ca:80:13:03:8c:
         61:bc:59:e8
-----BEGIN CERTIFICATE-----
MIIFRjCCBC6gAwIBAgIBBDANBgkqhkiG9w0BAQsFADCBpjELMAkGA1UEBhMCQlIx
CzAJBgNVBAgTAlRPMQ8wDQYDVQQHEwZQYWxtYXMxDTALBgNVBAoTBElGVE8xHDAa
BgNVBAsUE011bHRpX0NsaWVudF9zZXJ2ZXIxEDAOBgNVBAMTB0lGVE8gQ0ExEDAO
BgNVBCkTB0Vhc3lSU0ExKDAmBgkqhkiG9w0BCQEWGWplcmVtaWFzbmVyZXMyM0Bn
bWFpbC5jb20wHhcNMTkwNTI3MTE0OTA3WhcNMjkwNTI0MTE0OTA3WjCBqzELMAkG
A1UEBhMCQlIxCzAJBgNVBAgTAlRPMQ8wDQYDVQQHEwZQYWxtYXMxDTALBgNVBAoT
BElGVE8xHDAaBgNVBAsUE011bHRpX0NsaWVudF9zZXJ2ZXIxFTATBgNVBAMTDGNs
aWVudGUtYmFzczEQMA4GA1UEKRMHRWFzeVJTQTEoMCYGCSqGSIb3DQEJARYZamVy
ZW1pYXNuZXJlczIzQGdtYWlsLmNvbTCCASIwDQYJKoZIhvcNAQEBBQADggEPADCC
AQoCggEBANHvxxzfnDtH1Ys9QsX/JXhu0IwY077SFFgvofyFxhcRQXnMgQoRHe/g
CDDe5sSRPNoyeFjkNB2mlnNJ2ucy3+jOTe+ssNayS209wA3hmaoMQKId85cKSwaA
hWcTuYhk6M9JSFKL6aA+mLuTw4JM134SMbHt4wUeZHwfeGmRgSiQdp27I+lAKTRA
3uhTnQtk9lKlrdL3BFCyMgiarC/0pnYsBza5kp55X+yOUME6JQEFvBf12j2ZilO6
unkhGYYKRJQHAbY3Zrdm0e7YTF3oVlqFOzehXj3EW5zIPpMbvMbuL4I6btbFDOnV
e+jcTU8GKPAi4fFzyUKLuKkVUbU5zTUCAwEAAaOCAXYwggFyMAkGA1UdEwQCMAAw
LQYJYIZIAYb4QgENBCAWHkVhc3ktUlNBIEdlbmVyYXRlZCBDZXJ0aWZpY2F0ZTAd
BgNVHQ4EFgQUfDR8t8iulP8GyTW/DTGVZBSU0EcwgdsGA1UdIwSB0zCB0IAUspii
Ysmb4vLIPzM8UdNhljUVqYmhgaykgakwgaYxCzAJBgNVBAYTAkJSMQswCQYDVQQI
EwJUTzEPMA0GA1UEBxMGUGFsbWFzMQ0wCwYDVQQKEwRJRlRPMRwwGgYDVQQLFBNN
dWx0aV9DbGllbnRfc2VydmVyMRAwDgYDVQQDEwdJRlRPIENBMRAwDgYDVQQpEwdF
YXN5UlNBMSgwJgYJKoZIhvcNAQkBFhlqZXJlbWlhc25lcmVzMjNAZ21haWwuY29t
ggkAra7UaDkhjH4wEwYDVR0lBAwwCgYIKwYBBQUHAwIwCwYDVR0PBAQDAgeAMBcG
A1UdEQQQMA6CDGNsaWVudGUtYmFzczANBgkqhkiG9w0BAQsFAAOCAQEAmIgLcmX6
surzoQ5ZtdGF3kyqs4ziF/AWu6TWOxVR+HAfRh2ixBksQxbZun8CwNJrecguAmyu
Jh9QugDpNKpkYp6JO0oYWRPRsfspQ8txYaKojKfpJssL2/CJPrrJGNQciOIlgSZe
3N78ZoB/KY9duhEVwt4fjGCVSyiwWRvUWrODMTvGjMGt2QFz43mO1LD+4buZrDOb
H6LRjc2JHADuj2hWXbWDC6FVNPoJe3z5RrsHKKs+85Kgl0WaUGPoAsGOwsp+fBcV
McbzdsGZoBg3ySYyaOhHum1tgTwkfcGRr03be6fwo0nomB4Ih3qJZegKQtuZARDO
t8qAEwOMYbxZ6A==
-----END CERTIFICATE-----
