Certificate:
    Data:
        Version: 3 (0x2)
        Serial Number: 1 (0x1)
    Signature Algorithm: sha256WithRSAEncryption
        Issuer: C=BR, ST=TO, L=Palmas, O=IFTO, OU=Multi_Client_server, CN=IFTO CA/name=EasyRSA/emailAddress=jeremiasneres23@gmail.com
        Validity
            Not Before: May 13 12:12:41 2019 GMT
            Not After : May 10 12:12:41 2029 GMT
        Subject: C=BR, ST=TO, L=Palmas, O=Server, OU=Multi_Client_server, CN=servidor/name=Servidor/emailAddress=jeremiasneres23@gmail.com
        Subject Public Key Info:
            Public Key Algorithm: rsaEncryption
                Public-Key: (2048 bit)
                Modulus:
                    00:ee:44:f7:fd:50:42:2b:7c:6b:ac:30:6c:fe:27:
                    80:b3:9d:8c:d1:b2:2a:37:94:65:d3:18:a9:28:8a:
                    b6:db:d3:65:27:b4:96:88:a4:0c:86:4b:77:de:72:
                    ac:d4:e1:e9:bf:6b:98:4e:a8:2c:b1:99:dc:b6:ae:
                    5d:5c:cd:9a:66:03:a2:e4:8c:e5:fb:4d:f9:0d:24:
                    64:67:c1:19:ec:07:73:dc:8f:bb:f4:09:a8:63:e7:
                    0a:c2:38:de:7d:1d:87:5a:37:df:a8:6c:f8:5b:94:
                    10:90:c2:da:cd:c3:c0:6f:a2:b4:bb:8a:c7:e3:e9:
                    38:62:40:13:2c:4c:12:56:38:c5:c6:7e:f9:d5:6c:
                    51:77:f0:84:73:36:6e:8d:a1:e1:b4:ff:0b:9d:af:
                    3b:03:c6:2a:5a:d2:fe:99:d1:a3:e3:85:c7:d9:48:
                    b1:75:59:f1:c0:f1:b1:15:ae:53:4e:94:72:24:91:
                    6e:9e:27:5f:77:55:d5:7a:44:fc:c5:5f:a2:e3:5b:
                    2e:b7:b5:83:cd:10:06:34:9e:b1:a0:85:df:eb:19:
                    51:8f:ea:dc:a3:5b:b3:b8:22:6c:f7:bf:9f:36:19:
                    13:15:a8:7a:5b:dd:c9:62:70:e1:f3:74:1f:60:7e:
                    8b:8c:dd:71:1d:00:65:a1:5c:f5:93:9e:51:cb:fe:
                    99:cb
                Exponent: 65537 (0x10001)
        X509v3 extensions:
            X509v3 Basic Constraints: 
                CA:FALSE
            Netscape Cert Type: 
                SSL Server
            Netscape Comment: 
                Easy-RSA Generated Server Certificate
            X509v3 Subject Key Identifier: 
                45:BF:16:DC:5C:35:59:3B:89:74:59:E2:48:2D:95:A2:48:F7:B1:98
            X509v3 Authority Key Identifier: 
                keyid:54:E6:B4:88:C6:7C:EE:DF:43:4E:1A:B1:5D:43:BF:54:B7:12:7D:36
                DirName:/C=BR/ST=TO/L=Palmas/O=IFTO/OU=Multi_Client_server/CN=IFTO CA/name=EasyRSA/emailAddress=jeremiasneres23@gmail.com
                serial:FB:E5:8E:42:CB:B0:32:67

            X509v3 Extended Key Usage: 
                TLS Web Server Authentication
            X509v3 Key Usage: 
                Digital Signature, Key Encipherment
            X509v3 Subject Alternative Name: 
                DNS:servidor
    Signature Algorithm: sha256WithRSAEncryption
         91:ef:5f:88:ba:5a:3d:d2:29:58:ce:61:97:a4:93:c4:c4:86:
         65:4c:cf:87:0d:5e:5a:bd:97:00:ef:95:ee:5b:b6:de:ca:02:
         b3:00:7d:57:9c:dd:e3:2c:57:2c:dd:df:d3:18:b2:72:38:ec:
         b8:7a:c1:7d:8e:74:0b:9c:ab:6a:7c:0b:b3:b1:af:bf:2d:b8:
         23:f7:d7:99:7b:31:85:c0:4f:20:f0:f4:e0:fd:a4:be:d7:6e:
         23:b6:27:42:3e:85:b4:27:19:f7:b4:1c:d8:73:16:c1:10:b5:
         b8:77:75:75:8b:34:69:80:45:d1:74:d1:56:9a:49:26:75:54:
         93:bc:84:8a:29:cc:9b:a0:e4:0d:49:40:33:4a:d4:53:cd:66:
         66:56:8c:98:44:24:32:ff:05:15:8c:61:ad:04:96:09:d1:8e:
         ec:91:14:3c:eb:c1:36:ba:f1:59:eb:36:fb:85:d0:3c:14:24:
         fc:4a:fa:26:7b:72:80:ae:81:ec:47:c0:e6:b2:ca:b1:d4:f3:
         18:43:c1:73:4c:a2:65:e6:a1:02:d6:c7:25:00:5e:1e:e8:9b:
         a0:11:ae:83:c9:51:bf:0d:3f:49:c2:3f:7b:e5:f9:cb:54:95:
         2f:66:92:e2:5c:72:f5:af:a8:2e:66:f7:cd:b1:36:7e:f8:f8:
         a2:5c:4e:66
-----BEGIN CERTIFICATE-----
MIIFWzCCBEOgAwIBAgIBATANBgkqhkiG9w0BAQsFADCBpjELMAkGA1UEBhMCQlIx
CzAJBgNVBAgTAlRPMQ8wDQYDVQQHEwZQYWxtYXMxDTALBgNVBAoTBElGVE8xHDAa
BgNVBAsUE011bHRpX0NsaWVudF9zZXJ2ZXIxEDAOBgNVBAMTB0lGVE8gQ0ExEDAO
BgNVBCkTB0Vhc3lSU0ExKDAmBgkqhkiG9w0BCQEWGWplcmVtaWFzbmVyZXMyM0Bn
bWFpbC5jb20wHhcNMTkwNTEzMTIxMjQxWhcNMjkwNTEwMTIxMjQxWjCBqjELMAkG
A1UEBhMCQlIxCzAJBgNVBAgTAlRPMQ8wDQYDVQQHEwZQYWxtYXMxDzANBgNVBAoT
BlNlcnZlcjEcMBoGA1UECxQTTXVsdGlfQ2xpZW50X3NlcnZlcjERMA8GA1UEAxMI
c2Vydmlkb3IxETAPBgNVBCkTCFNlcnZpZG9yMSgwJgYJKoZIhvcNAQkBFhlqZXJl
bWlhc25lcmVzMjNAZ21haWwuY29tMIIBIjANBgkqhkiG9w0BAQEFAAOCAQ8AMIIB
CgKCAQEA7kT3/VBCK3xrrDBs/ieAs52M0bIqN5Rl0xipKIq229NlJ7SWiKQMhkt3
3nKs1OHpv2uYTqgssZnctq5dXM2aZgOi5Izl+035DSRkZ8EZ7Adz3I+79AmoY+cK
wjjefR2HWjffqGz4W5QQkMLazcPAb6K0u4rH4+k4YkATLEwSVjjFxn751WxRd/CE
czZujaHhtP8Lna87A8YqWtL+mdGj44XH2UixdVnxwPGxFa5TTpRyJJFunidfd1XV
ekT8xV+i41sut7WDzRAGNJ6xoIXf6xlRj+rco1uzuCJs97+fNhkTFah6W93JYnDh
83QfYH6LjN1xHQBloVz1k55Ry/6ZywIDAQABo4IBjDCCAYgwCQYDVR0TBAIwADAR
BglghkgBhvhCAQEEBAMCBkAwNAYJYIZIAYb4QgENBCcWJUVhc3ktUlNBIEdlbmVy
YXRlZCBTZXJ2ZXIgQ2VydGlmaWNhdGUwHQYDVR0OBBYEFEW/FtxcNVk7iXRZ4kgt
laJI97GYMIHbBgNVHSMEgdMwgdCAFFTmtIjGfO7fQ04asV1Dv1S3En02oYGspIGp
MIGmMQswCQYDVQQGEwJCUjELMAkGA1UECBMCVE8xDzANBgNVBAcTBlBhbG1hczEN
MAsGA1UEChMESUZUTzEcMBoGA1UECxQTTXVsdGlfQ2xpZW50X3NlcnZlcjEQMA4G
A1UEAxMHSUZUTyBDQTEQMA4GA1UEKRMHRWFzeVJTQTEoMCYGCSqGSIb3DQEJARYZ
amVyZW1pYXNuZXJlczIzQGdtYWlsLmNvbYIJAPvljkLLsDJnMBMGA1UdJQQMMAoG
CCsGAQUFBwMBMAsGA1UdDwQEAwIFoDATBgNVHREEDDAKgghzZXJ2aWRvcjANBgkq
hkiG9w0BAQsFAAOCAQEAke9fiLpaPdIpWM5hl6STxMSGZUzPhw1eWr2XAO+V7lu2
3soCswB9V5zd4yxXLN3f0xiycjjsuHrBfY50C5yranwLs7Gvvy24I/fXmXsxhcBP
IPD04P2kvtduI7YnQj6FtCcZ97Qc2HMWwRC1uHd1dYs0aYBF0XTRVppJJnVUk7yE
iinMm6DkDUlAM0rUU81mZlaMmEQkMv8FFYxhrQSWCdGO7JEUPOvBNrrxWes2+4XQ
PBQk/Er6JntygK6B7EfA5rLKsdTzGEPBc0yiZeahAtbHJQBeHuiboBGug8lRvw0/
ScI/e+X5y1SVL2aS4lxy9a+oLmb3zbE2fvj4olxOZg==
-----END CERTIFICATE-----
